target datalayout = "e-m:e-p270:32:32-p271:32:32-p272:64:64-i64:64-i128:128-f80:128-n8:16:32:64-S128"
target triple = "x86_64-pc-linux-gnu"

@.str.5 = private unnamed_addr constant [37 x i8] c"src/hotspot/share/nmt/nmtPreInit.cpp\00", align 1
@.str.6 = private unnamed_addr constant [30 x i8] c"VM early initialization phase\00", align 1

; Function Attrs: mustprogress nounwind uwtable
define internal noundef ptr @_ZL10raw_mallocm(i64 noundef %0) #1 {
  %2 = alloca i64, align 8
  store i64 %0, ptr %2, align 8
  %3 = load i64, ptr %2, align 8
  %4 = call noalias ptr @malloc(i64 noundef %3) #10
  ret ptr %4
}

; Function Attrs: mustprogress nounwind uwtable
define internal noundef ptr @_ZL18raw_checked_mallocm(i64 noundef %0) #1 {
  %2 = alloca i64, align 8
  %3 = alloca ptr, align 8
  store i64 %0, ptr %2, align 8
  %4 = load i64, ptr %2, align 8
  %5 = call noundef ptr @_ZL10raw_mallocm(i64 noundef %4)
  store ptr %5, ptr %3, align 8
  %6 = load ptr, ptr %3, align 8
  %7 = icmp eq ptr %6, null
  br i1 %7, label %8, label %12

8:                                                ; preds = %1
  br label %9

9:                                                ; preds = %8
  %10 = load i64, ptr %2, align 8
  call void (ptr, i32, i64, i32, ptr, ...) @_Z23report_vm_out_of_memoryPKcim11VMErrorTypeS0_z(ptr noundef @.str.5, i32 noundef 47, i64 noundef %10, i32 noundef -536870911, ptr noundef @.str.6) #8
  unreachable

11:                                               ; No predecessors!
  br label %12

12:                                               ; preds = %11, %1
  %13 = load ptr, ptr %3, align 8
  ret ptr %13
}

; Function Attrs: mustprogress nounwind uwtable
define hidden noundef ptr @_ZN20NMTPreInitAllocationnwEm(i64 noundef %0) #1 align 2 {
  %2 = alloca i64, align 8
  store i64 %0, ptr %2, align 8
  %3 = load i64, ptr %2, align 8
  %4 = call noundef ptr @_ZL18raw_checked_mallocm(i64 noundef %3)
  ret ptr %4
}